; Function Attrs: mustprogress uwtable
define void @_ZN6Assimp23GenVertexNormalsProcess7ExecuteEP7aiScene(ptr nocapture noundef nonnull readonly align 8 dereferenceable(31) %this, ptr nocapture noundef readonly %pScene) unnamed_addr #3 align 2 personality ptr @__gxx_personality_v0 {
entry:
  %call = tail call noundef ptr @_ZN6Assimp13DefaultLogger3getEv()
  tail call void @_ZN6Assimp6Logger5debugEPKc(ptr noundef nonnull align 8 dereferenceable(12) %call, ptr noundef nonnull @.str.1)
  %0 = load i32, ptr %pScene, align 8
  %and = and i32 %0, 8
  %tobool.not = icmp eq i32 %and, 0
  br i1 %tobool.not, label %for.cond.preheader, label %if.then

for.cond.preheader:                               ; preds = %entry
  %mNumMeshes = getelementptr inbounds i8, ptr %pScene, i64 16
  %1 = load i32, ptr %mNumMeshes, align 8
  %cmp6.not = icmp eq i32 %1, 0
  br i1 %cmp6.not, label %if.else, label %for.body.lr.ph

for.body.lr.ph:                                   ; preds = %for.cond.preheader
  %mMeshes = getelementptr inbounds i8, ptr %pScene, i64 24
  br label %for.body

if.then:                                          ; preds = %entry
  %exception = tail call ptr @__cxa_allocate_exception(i64 16) #14
  invoke void @_ZN17DeadlyImportErrorC2EPKc(ptr noundef nonnull align 8 dereferenceable(16) %exception, ptr noundef nonnull @.str.2)
          to label %invoke.cont unwind label %lpad

invoke.cont:                                      ; preds = %if.then
  tail call void @__cxa_throw(ptr nonnull %exception, ptr nonnull @_ZTI17DeadlyImportError, ptr nonnull @_ZN17DeadlyImportErrorD2Ev) #15
  unreachable

lpad:                                             ; preds = %if.then
  %2 = landingpad { ptr, i32 }
          cleanup
  tail call void @__cxa_free_exception(ptr %exception) #14
  resume { ptr, i32 } %2

for.body:                                         ; preds = %for.body.lr.ph, %for.body
  %indvars.iv = phi i64 [ 0, %for.body.lr.ph ], [ %indvars.iv.next, %for.body ]
  %bHas.07 = phi i8 [ 0, %for.body.lr.ph ], [ %spec.select, %for.body ]
  %3 = load ptr, ptr %mMeshes, align 8
  %arrayidx = getelementptr inbounds ptr, ptr %3, i64 %indvars.iv
  %4 = load ptr, ptr %arrayidx, align 8
  %5 = trunc i64 %indvars.iv to i32
  %call2 = tail call noundef zeroext i1 @_ZN6Assimp23GenVertexNormalsProcess20GenMeshVertexNormalsEP6aiMeshj(ptr noundef nonnull align 8 dereferenceable(31) %this, ptr noundef %4, i32 noundef %5)
  %spec.select = select i1 %call2, i8 1, i8 %bHas.07
  %indvars.iv.next = add nuw nsw i64 %indvars.iv, 1
  %6 = load i32, ptr %mNumMeshes, align 8
  %7 = zext i32 %6 to i64
  %cmp = icmp ult i64 %indvars.iv.next, %7
  br i1 %cmp, label %for.body, label %for.end, !llvm.loop !4

for.end:                                          ; preds = %for.body
  %8 = and i8 %spec.select, 1
  %9 = icmp eq i8 %8, 0
  br i1 %9, label %if.else, label %if.then6

if.then6:                                         ; preds = %for.end
  %call7 = tail call noundef ptr @_ZN6Assimp13DefaultLogger3getEv()
  tail call void @_ZN6Assimp6Logger4infoEPKc(ptr noundef nonnull align 8 dereferenceable(12) %call7, ptr noundef nonnull @.str.3)
  br label %if.end9

if.else:                                          ; preds = %for.cond.preheader, %for.end
  %call8 = tail call noundef ptr @_ZN6Assimp13DefaultLogger3getEv()
  tail call void @_ZN6Assimp6Logger5debugEPKc(ptr noundef nonnull align 8 dereferenceable(12) %call8, ptr noundef nonnull @.str.4)
  br label %if.end9

if.end9:                                          ; preds = %if.else, %if.then6
  ret void
}